target datalayout = "e-m:e-p270:32:32-p271:32:32-p272:64:64-i64:64-i128:128-f80:128-n8:16:32:64-S128"
target triple = "x86_64-pc-linux-gnu"

%struct._packet_info = type { ptr, ptr, i32, i32, %struct.nstime_t, %struct.nstime_t, %struct.nstime_t, i8, ptr, ptr, ptr, ptr, %struct._address, %struct._address, %struct._address, %struct._address, %struct._address, %struct._address, i32, ptr, i8, [3 x i8], %struct.anon, i32, i32, i32, i32, ptr, i8, ptr, ptr, i16, i16, i32, i32, i16, i32, i32, ptr, ptr, ptr, i8, i8, i16, i16, i16, i32, i16, i16, ptr, ptr, ptr, ptr, ptr, i32, i32 }
%struct.nstime_t = type { i64, i32 }
%struct._address = type { i32, i32, ptr, ptr }
%struct.anon = type { i8, [3 x i8] }
%struct._xmpp_element_t = type { ptr, ptr, ptr, ptr, ptr, ptr, i32, i32, i8 }
%struct._GList = type { ptr, ptr, ptr }
%struct._xmpp_data_t = type { ptr, i32, i32 }

@ett_unknown = external global [20 x i32], align 16
@.str.13 = private unnamed_addr constant [5 x i8] c"(%s)\00", align 1
@hf_xmpp_cdata = external global i32, align 4
@.str.26 = private unnamed_addr constant [29 x i8] c"%s:%u: failed assertion \22%s\22\00", align 1
@.str.27 = private unnamed_addr constant [36 x i8] c"epan/dissectors/packet-xmpp-utils.c\00", align 1
@.str.28 = private unnamed_addr constant [11 x i8] c"level < 20\00", align 1

; Function Attrs: null_pointer_is_valid sspstrong uwtable
define internal ptr @xmpp_ep_string_upcase(ptr noundef %0, ptr noundef %1) #0 {
  %3 = alloca ptr, align 8
  %4 = alloca ptr, align 8
  %5 = alloca i32, align 4
  %6 = alloca i32, align 4
  %7 = alloca ptr, align 8
  store ptr %0, ptr %3, align 8
  store ptr %1, ptr %4, align 8
  call void @llvm.lifetime.start.p0(i64 4, ptr %5) #8
  %8 = load ptr, ptr %4, align 8
  %9 = call i64 @strlen(ptr noundef %8) #10
  %10 = trunc i64 %9 to i32
  store i32 %10, ptr %5, align 4
  call void @llvm.lifetime.start.p0(i64 4, ptr %6) #8
  call void @llvm.lifetime.start.p0(i64 8, ptr %7) #8
  %11 = load ptr, ptr %3, align 8
  %12 = load i32, ptr %5, align 4
  %13 = add i32 %12, 1
  %14 = sext i32 %13 to i64
  %15 = call noalias ptr @wmem_alloc0(ptr noundef %11, i64 noundef %14) #9
  store ptr %15, ptr %7, align 8
  store i32 0, ptr %6, align 4
  br label %16

16:                                               ; preds = %55, %2
  %17 = load i32, ptr %6, align 4
  %18 = load i32, ptr %5, align 4
  %19 = icmp slt i32 %17, %18
  br i1 %19, label %20, label %58

20:                                               ; preds = %16
  %21 = load ptr, ptr %4, align 8
  %22 = load i32, ptr %6, align 4
  %23 = sext i32 %22 to i64
  %24 = getelementptr i8, ptr %21, i64 %23
  %25 = load i8, ptr %24, align 1
  %26 = load ptr, ptr %7, align 8
  %27 = load i32, ptr %6, align 4
  %28 = sext i32 %27 to i64
  %29 = getelementptr i8, ptr %26, i64 %28
  store i8 %25, ptr %29, align 1
  %30 = load ptr, ptr %4, align 8
  %31 = load i32, ptr %6, align 4
  %32 = sext i32 %31 to i64
  %33 = getelementptr i8, ptr %30, i64 %32
  %34 = load i8, ptr %33, align 1
  %35 = sext i8 %34 to i32
  %36 = icmp sge i32 %35, 97
  br i1 %36, label %37, label %54

37:                                               ; preds = %20
  %38 = load ptr, ptr %4, align 8
  %39 = load i32, ptr %6, align 4
  %40 = sext i32 %39 to i64
  %41 = getelementptr i8, ptr %38, i64 %40
  %42 = load i8, ptr %41, align 1
  %43 = sext i8 %42 to i32
  %44 = icmp sle i32 %43, 122
  br i1 %44, label %45, label %54

45:                                               ; preds = %37
  %46 = load ptr, ptr %7, align 8
  %47 = load i32, ptr %6, align 4
  %48 = sext i32 %47 to i64
  %49 = getelementptr i8, ptr %46, i64 %48
  %50 = load i8, ptr %49, align 1
  %51 = sext i8 %50 to i32
  %52 = sub i32 %51, 32
  %53 = trunc i32 %52 to i8
  store i8 %53, ptr %49, align 1
  br label %54

54:                                               ; preds = %45, %37, %20
  br label %55

55:                                               ; preds = %54
  %56 = load i32, ptr %6, align 4
  %57 = add i32 %56, 1
  store i32 %57, ptr %6, align 4
  br label %16, !llvm.loop !10

58:                                               ; preds = %16
  %59 = load ptr, ptr %7, align 8
  call void @llvm.lifetime.end.p0(i64 8, ptr %7) #8
  call void @llvm.lifetime.end.p0(i64 4, ptr %6) #8
  call void @llvm.lifetime.end.p0(i64 4, ptr %5) #8
  ret ptr %59
}

; Function Attrs: null_pointer_is_valid sspstrong uwtable
define internal void @xmpp_unknown_items(ptr noundef %0, ptr noundef %1, ptr noundef %2, ptr noundef %3, i32 noundef %4) #0 {
  %6 = alloca ptr, align 8
  %7 = alloca ptr, align 8
  %8 = alloca ptr, align 8
  %9 = alloca ptr, align 8
  %10 = alloca i32, align 4
  %11 = alloca ptr, align 8
  %12 = alloca ptr, align 8
  %13 = alloca ptr, align 8
  %14 = alloca ptr, align 8
  store ptr %0, ptr %6, align 8
  store ptr %1, ptr %7, align 8
  store ptr %2, ptr %8, align 8
  store ptr %3, ptr %9, align 8
  store i32 %4, ptr %10, align 4
  call void @llvm.lifetime.start.p0(i64 8, ptr %11) #8
  %15 = load ptr, ptr %9, align 8
  %16 = getelementptr inbounds nuw %struct._xmpp_element_t, ptr %15, i32 0, i32 4
  %17 = load ptr, ptr %16, align 8
  store ptr %17, ptr %11, align 8
  %18 = load i32, ptr %10, align 4
  %19 = icmp ult i32 %18, 20
  br i1 %19, label %20, label %21

20:                                               ; preds = %5
  br label %23

21:                                               ; preds = %5
  call void (ptr, ...) @proto_report_dissector_bug(ptr noundef @.str.26, ptr noundef @.str.27, i32 noundef 197, ptr noundef @.str.28) #11
  unreachable

22:                                               ; No predecessors!
  br label %23

23:                                               ; preds = %22, %20
  %24 = load ptr, ptr %6, align 8
  %25 = load ptr, ptr %7, align 8
  %26 = load ptr, ptr %8, align 8
  %27 = load ptr, ptr %9, align 8
  call void @xmpp_unknown_attrs(ptr noundef %24, ptr noundef %25, ptr noundef %26, ptr noundef %27, i1 noundef zeroext true)
  %28 = load ptr, ptr %9, align 8
  %29 = getelementptr inbounds nuw %struct._xmpp_element_t, ptr %28, i32 0, i32 5
  %30 = load ptr, ptr %29, align 8
  %31 = icmp ne ptr %30, null
  br i1 %31, label %32, label %52

32:                                               ; preds = %23
  %33 = load ptr, ptr %6, align 8
  %34 = load i32, ptr @hf_xmpp_cdata, align 4
  %35 = load ptr, ptr %7, align 8
  %36 = load ptr, ptr %9, align 8
  %37 = getelementptr inbounds nuw %struct._xmpp_element_t, ptr %36, i32 0, i32 5
  %38 = load ptr, ptr %37, align 8
  %39 = getelementptr inbounds nuw %struct._xmpp_data_t, ptr %38, i32 0, i32 1
  %40 = load i32, ptr %39, align 8
  %41 = load ptr, ptr %9, align 8
  %42 = getelementptr inbounds nuw %struct._xmpp_element_t, ptr %41, i32 0, i32 5
  %43 = load ptr, ptr %42, align 8
  %44 = getelementptr inbounds nuw %struct._xmpp_data_t, ptr %43, i32 0, i32 2
  %45 = load i32, ptr %44, align 4
  %46 = load ptr, ptr %9, align 8
  %47 = getelementptr inbounds nuw %struct._xmpp_element_t, ptr %46, i32 0, i32 5
  %48 = load ptr, ptr %47, align 8
  %49 = getelementptr inbounds nuw %struct._xmpp_data_t, ptr %48, i32 0, i32 0
  %50 = load ptr, ptr %49, align 8
  %51 = call ptr @proto_tree_add_string(ptr noundef %33, i32 noundef %34, ptr noundef %35, i32 noundef %40, i32 noundef %45, ptr noundef %50)
  br label %52

52:                                               ; preds = %32, %23
  br label %53

53:                                               ; preds = %89, %52
  %54 = load ptr, ptr %11, align 8
  %55 = icmp ne ptr %54, null
  br i1 %55, label %56, label %99

56:                                               ; preds = %53
  call void @llvm.lifetime.start.p0(i64 8, ptr %12) #8
  %57 = load ptr, ptr %11, align 8
  %58 = getelementptr inbounds nuw %struct._GList, ptr %57, i32 0, i32 0
  %59 = load ptr, ptr %58, align 8
  store ptr %59, ptr %12, align 8
  call void @llvm.lifetime.start.p0(i64 8, ptr %13) #8
  call void @llvm.lifetime.start.p0(i64 8, ptr %14) #8
  %60 = load ptr, ptr %6, align 8
  %61 = load ptr, ptr %7, align 8
  %62 = load ptr, ptr %12, align 8
  %63 = getelementptr inbounds nuw %struct._xmpp_element_t, ptr %62, i32 0, i32 6
  %64 = load i32, ptr %63, align 8
  %65 = load ptr, ptr %12, align 8
  %66 = getelementptr inbounds nuw %struct._xmpp_element_t, ptr %65, i32 0, i32 7
  %67 = load i32, ptr %66, align 4
  %68 = load i32, ptr %10, align 4
  %69 = zext i32 %68 to i64
  %70 = getelementptr [20 x i32], ptr @ett_unknown, i64 0, i64 %69
  %71 = load i32, ptr %70, align 4
  %72 = load ptr, ptr %8, align 8
  %73 = getelementptr inbounds nuw %struct._packet_info, ptr %72, i32 0, i32 51
  %74 = load ptr, ptr %73, align 8
  %75 = load ptr, ptr %12, align 8
  %76 = getelementptr inbounds nuw %struct._xmpp_element_t, ptr %75, i32 0, i32 0
  %77 = load ptr, ptr %76, align 8
  %78 = call ptr @xmpp_ep_string_upcase(ptr noundef %74, ptr noundef %77)
  %79 = call ptr @proto_tree_add_subtree(ptr noundef %60, ptr noundef %61, i32 noundef %64, i32 noundef %67, i32 noundef %71, ptr noundef %13, ptr noundef %78)
  store ptr %79, ptr %14, align 8
  %80 = load ptr, ptr %12, align 8
  %81 = getelementptr inbounds nuw %struct._xmpp_element_t, ptr %80, i32 0, i32 1
  %82 = load ptr, ptr %81, align 8
  %83 = icmp ne ptr %82, null
  br i1 %83, label %84, label %89

84:                                               ; preds = %56
  %85 = load ptr, ptr %13, align 8
  %86 = load ptr, ptr %12, align 8
  %87 = getelementptr inbounds nuw %struct._xmpp_element_t, ptr %86, i32 0, i32 1
  %88 = load ptr, ptr %87, align 8
  call void (ptr, ptr, ...) @proto_item_append_text(ptr noundef %85, ptr noundef @.str.13, ptr noundef %88)
  br label %89

89:                                               ; preds = %84, %56
  %90 = load ptr, ptr %14, align 8
  %91 = load ptr, ptr %7, align 8
  %92 = load ptr, ptr %8, align 8
  %93 = load ptr, ptr %12, align 8
  %94 = load i32, ptr %10, align 4
  %95 = add i32 %94, 1
  call void @xmpp_unknown_items(ptr noundef %90, ptr noundef %91, ptr noundef %92, ptr noundef %93, i32 noundef %95)
  %96 = load ptr, ptr %11, align 8
  %97 = getelementptr inbounds nuw %struct._GList, ptr %96, i32 0, i32 1
  %98 = load ptr, ptr %97, align 8
  store ptr %98, ptr %11, align 8
  call void @llvm.lifetime.end.p0(i64 8, ptr %14) #8
  call void @llvm.lifetime.end.p0(i64 8, ptr %13) #8
  call void @llvm.lifetime.end.p0(i64 8, ptr %12) #8
  br label %53, !llvm.loop !11

99:                                               ; preds = %53
  call void @llvm.lifetime.end.p0(i64 8, ptr %11) #8
  ret void
}