; Function Attrs: null_pointer_is_valid sspstrong uwtable
define internal fastcc void @xmpp_unknown_items(ptr noundef %0, ptr noundef %1, ptr noundef %2, ptr noundef readonly captures(none) %3, i32 noundef %4) unnamed_addr #0 {
  %6 = alloca ptr, align 8
  %7 = getelementptr inbounds nuw i8, ptr %3, i64 32
  %8 = load ptr, ptr %7, align 8
  %9 = icmp ult i32 %4, 20
  br i1 %9, label %11, label %10

10:                                               ; preds = %5
  tail call void (ptr, ...) @proto_report_dissector_bug(ptr noundef nonnull @.str.26, ptr noundef nonnull @.str.27, i32 noundef 197, ptr noundef nonnull @.str.28) #12
  unreachable

11:                                               ; preds = %5
  tail call fastcc void @xmpp_unknown_attrs(ptr noundef %0, ptr noundef %1, ptr noundef %2, ptr noundef %3, i1 noundef zeroext true)
  %12 = getelementptr inbounds nuw i8, ptr %3, i64 40
  %13 = load ptr, ptr %12, align 8
  %.not = icmp eq ptr %13, null
  br i1 %.not, label %22, label %14

14:                                               ; preds = %11
  %15 = load i32, ptr @hf_xmpp_cdata, align 4
  %16 = getelementptr inbounds nuw i8, ptr %13, i64 8
  %17 = load i32, ptr %16, align 8
  %18 = getelementptr inbounds nuw i8, ptr %13, i64 12
  %19 = load i32, ptr %18, align 4
  %20 = load ptr, ptr %13, align 8
  %21 = tail call ptr @proto_tree_add_string(ptr noundef %0, i32 noundef %15, ptr noundef %1, i32 noundef %17, i32 noundef %19, ptr noundef %20)
  br label %22

22:                                               ; preds = %14, %11
  %.not3133 = icmp eq ptr %8, null
  br i1 %.not3133, label %._crit_edge, label %.lr.ph

.lr.ph:                                           ; preds = %22
  %23 = zext nneg i32 %4 to i64
  %24 = getelementptr [20 x i32], ptr @ett_unknown, i64 0, i64 %23
  %25 = getelementptr inbounds nuw i8, ptr %2, i64 408
  %26 = add nuw nsw i32 %4, 1
  br label %27

27:                                               ; preds = %.lr.ph, %52
  %.034 = phi ptr [ %8, %.lr.ph ], [ %54, %52 ]
  %28 = load ptr, ptr %.034, align 8
  call void @llvm.lifetime.start.p0(i64 8, ptr nonnull %6) #13
  %29 = getelementptr inbounds nuw i8, ptr %28, i64 48
  %30 = load i32, ptr %29, align 8
  %31 = getelementptr inbounds nuw i8, ptr %28, i64 52
  %32 = load i32, ptr %31, align 4
  %33 = load i32, ptr %24, align 4
  %34 = load ptr, ptr %25, align 8
  %35 = load ptr, ptr %28, align 8
  %36 = call i64 @strlen(ptr noundef readonly %35) #11
  %37 = trunc i64 %36 to i32
  %38 = shl i64 %36, 32
  %sext.i = add i64 %38, 4294967296
  %39 = ashr exact i64 %sext.i, 32
  %40 = call noalias ptr @wmem_alloc0(ptr noundef %34, i64 noundef %39) #10
  %41 = icmp sgt i32 %37, 0
  br i1 %41, label %.lr.ph.preheader.i, label %xmpp_ep_string_upcase.exit

.lr.ph.preheader.i:                               ; preds = %27
  %wide.trip.count.i = and i64 %36, 2147483647
  br label %.lr.ph.i

.lr.ph.i:                                         ; preds = %.lr.ph.i, %.lr.ph.preheader.i
  %indvars.iv.i = phi i64 [ 0, %.lr.ph.preheader.i ], [ %indvars.iv.next.i, %.lr.ph.i ]
  %42 = getelementptr i8, ptr %35, i64 %indvars.iv.i
  %43 = load i8, ptr %42, align 1
  %44 = getelementptr i8, ptr %40, i64 %indvars.iv.i
  %45 = add i8 %43, -97
  %or.cond.i = icmp ult i8 %45, 26
  %46 = add nsw i8 %43, -32
  %spec.select.i = select i1 %or.cond.i, i8 %46, i8 %43
  store i8 %spec.select.i, ptr %44, align 1
  %indvars.iv.next.i = add nuw nsw i64 %indvars.iv.i, 1
  %exitcond.not.i = icmp eq i64 %indvars.iv.next.i, %wide.trip.count.i
  br i1 %exitcond.not.i, label %xmpp_ep_string_upcase.exit, label %.lr.ph.i, !llvm.loop !8

xmpp_ep_string_upcase.exit:                       ; preds = %.lr.ph.i, %27
  %47 = call ptr @proto_tree_add_subtree(ptr noundef %0, ptr noundef %1, i32 noundef %30, i32 noundef %32, i32 noundef %33, ptr noundef nonnull %6, ptr noundef %40)
  %48 = getelementptr inbounds nuw i8, ptr %28, i64 8
  %49 = load ptr, ptr %48, align 8
  %.not32 = icmp eq ptr %49, null
  br i1 %.not32, label %52, label %50

50:                                               ; preds = %xmpp_ep_string_upcase.exit
  %51 = load ptr, ptr %6, align 8
  call void (ptr, ptr, ...) @proto_item_append_text(ptr noundef %51, ptr noundef nonnull @.str.13, ptr noundef nonnull %49)
  br label %52

52:                                               ; preds = %50, %xmpp_ep_string_upcase.exit
  call fastcc void @xmpp_unknown_items(ptr noundef %47, ptr noundef %1, ptr noundef %2, ptr noundef %28, i32 noundef %26)
  %53 = getelementptr inbounds nuw i8, ptr %.034, i64 8
  %54 = load ptr, ptr %53, align 8
  call void @llvm.lifetime.end.p0(i64 8, ptr nonnull %6) #13
  %.not31 = icmp eq ptr %54, null
  br i1 %.not31, label %._crit_edge, label %27, !llvm.loop !11

._crit_edge:                                      ; preds = %52, %22
  ret void
}